target datalayout = "e-m:e-p270:32:32-p271:32:32-p272:64:64-i64:64-i128:128-f80:128-n8:16:32:64-S128"
target triple = "x86_64-pc-linux-gnu"

%struct.typenode = type { i16, i64, ptr, ptr, ptr, ptr, ptr, ptr, ptr, ptr, ptr }
%struct.fieldnode = type { i16, i16, i16, i16, i16, i32, i32, i32, i32, i16, i16, i16, i16, i32, i32, i32, i32, ptr, ptr, ptr, ptr, ptr, ptr, ptr, ptr }

; Function Attrs: nounwind uwtable
define dso_local void @_nc_Free_Type(ptr noundef %0) #0 {
  %2 = alloca ptr, align 8
  store ptr %0, ptr %2, align 8, !tbaa !29
  %3 = load ptr, ptr %2, align 8, !tbaa !29
  %4 = getelementptr inbounds nuw %struct.fieldnode, ptr %3, i32 0, i32 21
  %5 = load ptr, ptr %4, align 8, !tbaa !31
  %6 = icmp ne ptr %5, null
  br i1 %6, label %7, label %14

7:                                                ; preds = %1
  %8 = load ptr, ptr %2, align 8, !tbaa !29
  %9 = getelementptr inbounds nuw %struct.fieldnode, ptr %8, i32 0, i32 21
  %10 = load ptr, ptr %9, align 8, !tbaa !31
  %11 = getelementptr inbounds nuw %struct.typenode, ptr %10, i32 0, i32 1
  %12 = load i64, ptr %11, align 8, !tbaa !36
  %13 = add nsw i64 %12, -1
  store i64 %13, ptr %11, align 8, !tbaa !36
  br label %14

14:                                               ; preds = %7, %1
  %15 = load ptr, ptr %2, align 8, !tbaa !29
  %16 = getelementptr inbounds nuw %struct.fieldnode, ptr %15, i32 0, i32 21
  %17 = load ptr, ptr %16, align 8, !tbaa !31
  %18 = load ptr, ptr %2, align 8, !tbaa !29
  %19 = getelementptr inbounds nuw %struct.fieldnode, ptr %18, i32 0, i32 22
  %20 = load ptr, ptr %19, align 8, !tbaa !35
  call void @_nc_Free_Argument(ptr noundef %17, ptr noundef %20)
  ret void
}

; Function Attrs: nounwind uwtable
define dso_local i32 @free_field(ptr noundef %0) #0 {
  %2 = alloca i32, align 4
  %3 = alloca ptr, align 8
  %4 = alloca ptr, align 8
  store ptr %0, ptr %3, align 8, !tbaa !29
  %5 = load ptr, ptr %3, align 8, !tbaa !29
  %6 = icmp ne ptr %5, null
  br i1 %6, label %9, label %7

7:                                                ; preds = %1
  %8 = call ptr @__errno_location() #9
  store i32 -2, ptr %8, align 4, !tbaa !24
  store i32 -2, ptr %2, align 4
  br label %55

9:                                                ; preds = %1
  %10 = load ptr, ptr %3, align 8, !tbaa !29
  %11 = getelementptr inbounds nuw %struct.fieldnode, ptr %10, i32 0, i32 20
  %12 = load ptr, ptr %11, align 8, !tbaa !56
  %13 = icmp ne ptr %12, null
  br i1 %13, label %14, label %16

14:                                               ; preds = %9
  %15 = call ptr @__errno_location() #9
  store i32 -4, ptr %15, align 4, !tbaa !24
  store i32 -4, ptr %2, align 4
  br label %55

16:                                               ; preds = %9
  %17 = load ptr, ptr %3, align 8, !tbaa !29
  %18 = load ptr, ptr %3, align 8, !tbaa !29
  %19 = getelementptr inbounds nuw %struct.fieldnode, ptr %18, i32 0, i32 19
  %20 = load ptr, ptr %19, align 8, !tbaa !50
  %21 = icmp eq ptr %17, %20
  br i1 %21, label %22, label %32

22:                                               ; preds = %16
  %23 = load ptr, ptr %3, align 8, !tbaa !29
  %24 = getelementptr inbounds nuw %struct.fieldnode, ptr %23, i32 0, i32 23
  %25 = load ptr, ptr %24, align 8, !tbaa !52
  %26 = icmp ne ptr %25, null
  br i1 %26, label %27, label %31

27:                                               ; preds = %22
  %28 = load ptr, ptr %3, align 8, !tbaa !29
  %29 = getelementptr inbounds nuw %struct.fieldnode, ptr %28, i32 0, i32 23
  %30 = load ptr, ptr %29, align 8, !tbaa !52
  call void @free(ptr noundef %30) #7
  br label %31

31:                                               ; preds = %27, %22
  br label %51

32:                                               ; preds = %16
  call void @llvm.lifetime.start.p0(i64 8, ptr %4) #7
  %33 = load ptr, ptr %3, align 8, !tbaa !29
  store ptr %33, ptr %4, align 8, !tbaa !29
  br label %34

34:                                               ; preds = %41, %32
  %35 = load ptr, ptr %4, align 8, !tbaa !29
  %36 = getelementptr inbounds nuw %struct.fieldnode, ptr %35, i32 0, i32 19
  %37 = load ptr, ptr %36, align 8, !tbaa !50
  %38 = load ptr, ptr %3, align 8, !tbaa !29
  %39 = icmp ne ptr %37, %38
  br i1 %39, label %40, label %45

40:                                               ; preds = %34
  br label %41

41:                                               ; preds = %40
  %42 = load ptr, ptr %4, align 8, !tbaa !29
  %43 = getelementptr inbounds nuw %struct.fieldnode, ptr %42, i32 0, i32 19
  %44 = load ptr, ptr %43, align 8, !tbaa !50
  store ptr %44, ptr %4, align 8, !tbaa !29
  br label %34, !llvm.loop !57

45:                                               ; preds = %34
  %46 = load ptr, ptr %3, align 8, !tbaa !29
  %47 = getelementptr inbounds nuw %struct.fieldnode, ptr %46, i32 0, i32 19
  %48 = load ptr, ptr %47, align 8, !tbaa !50
  %49 = load ptr, ptr %4, align 8, !tbaa !29
  %50 = getelementptr inbounds nuw %struct.fieldnode, ptr %49, i32 0, i32 19
  store ptr %48, ptr %50, align 8, !tbaa !50
  call void @llvm.lifetime.end.p0(i64 8, ptr %4) #7
  br label %51

51:                                               ; preds = %45, %31
  %52 = load ptr, ptr %3, align 8, !tbaa !29
  call void @_nc_Free_Type(ptr noundef %52)
  %53 = load ptr, ptr %3, align 8, !tbaa !29
  call void @free(ptr noundef %53) #7
  %54 = call ptr @__errno_location() #9
  store i32 0, ptr %54, align 4, !tbaa !24
  store i32 0, ptr %2, align 4
  br label %55

55:                                               ; preds = %51, %14, %7
  %56 = load i32, ptr %2, align 4
  ret i32 %56
}