; Function Attrs: nounwind uwtable
define dso_local range(i32 -4, 1) i32 @free_field(ptr noundef %0) local_unnamed_addr #0 {
  %.not = icmp eq ptr %0, null
  br i1 %.not, label %26, label %2

2:                                                ; preds = %1
  %3 = getelementptr inbounds nuw i8, ptr %0, i64 80
  %4 = load ptr, ptr %3, align 8, !tbaa !50
  %.not18 = icmp eq ptr %4, null
  br i1 %.not18, label %5, label %26

5:                                                ; preds = %2
  %6 = getelementptr inbounds nuw i8, ptr %0, i64 72
  %7 = load ptr, ptr %6, align 8, !tbaa !45
  %8 = icmp eq ptr %0, %7
  br i1 %8, label %9, label %.preheader

9:                                                ; preds = %5
  %10 = getelementptr inbounds nuw i8, ptr %0, i64 104
  %11 = load ptr, ptr %10, align 8, !tbaa !46
  %.not20 = icmp eq ptr %11, null
  br i1 %.not20, label %17, label %12

12:                                               ; preds = %9
  tail call void @free(ptr noundef nonnull %11) #8
  br label %17

.preheader:                                       ; preds = %5, %.preheader
  %.0 = phi ptr [ %14, %.preheader ], [ %0, %5 ]
  %13 = getelementptr inbounds nuw i8, ptr %.0, i64 72
  %14 = load ptr, ptr %13, align 8, !tbaa !45
  %.not19 = icmp eq ptr %14, %0
  br i1 %.not19, label %15, label %.preheader, !llvm.loop !51

15:                                               ; preds = %.preheader
  %16 = getelementptr inbounds nuw i8, ptr %.0, i64 72
  store ptr %7, ptr %16, align 8, !tbaa !45
  br label %17

17:                                               ; preds = %9, %12, %15
  %18 = getelementptr inbounds nuw i8, ptr %0, i64 88
  %19 = load ptr, ptr %18, align 8, !tbaa !23
  %.not.i = icmp eq ptr %19, null
  br i1 %.not.i, label %_nc_Free_Type.exit, label %20

20:                                               ; preds = %17
  %21 = getelementptr inbounds nuw i8, ptr %19, i64 8
  %22 = load i64, ptr %21, align 8, !tbaa !29
  %23 = add nsw i64 %22, -1
  store i64 %23, ptr %21, align 8, !tbaa !29
  br label %_nc_Free_Type.exit

_nc_Free_Type.exit:                               ; preds = %17, %20
  %24 = getelementptr inbounds nuw i8, ptr %0, i64 96
  %25 = load ptr, ptr %24, align 8, !tbaa !28
  tail call void @_nc_Free_Argument(ptr noundef %19, ptr noundef %25)
  tail call void @free(ptr noundef nonnull %0) #8
  br label %26

26:                                               ; preds = %2, %1, %_nc_Free_Type.exit
  %.sink = phi i32 [ 0, %_nc_Free_Type.exit ], [ -2, %1 ], [ -4, %2 ]
  %27 = tail call ptr @__errno_location() #9
  store i32 %.sink, ptr %27, align 4, !tbaa !18
  ret i32 %.sink
}